; Function Attrs: mustprogress nounwind willreturn uwtable
define void @Abc_NtkStopReverseLevels(ptr noundef captures(none) initializes((284, 288)) %0) local_unnamed_addr #7 {
  %2 = getelementptr inbounds nuw i8, ptr %0, i64 288
  %3 = load ptr, ptr %2, align 8
  %4 = getelementptr inbounds nuw i8, ptr %3, i64 8
  %5 = load ptr, ptr %4, align 8
  %.not.i = icmp eq ptr %5, null
  br i1 %.not.i, label %Vec_IntFree.exit, label %6

6:                                                ; preds = %1
  tail call void @free(ptr noundef nonnull %5) #22
  br label %Vec_IntFree.exit

Vec_IntFree.exit:                                 ; preds = %1, %6
  tail call void @free(ptr noundef nonnull %3) #22
  store ptr null, ptr %2, align 8
  %7 = getelementptr inbounds nuw i8, ptr %0, i64 284
  store i32 0, ptr %7, align 4
  ret void
}